target datalayout = "e-m:e-p270:32:32-p271:32:32-p272:64:64-i64:64-i128:128-f80:128-n8:16:32:64-S128"
target triple = "x86_64-pc-linux-gnu"

%"struct.nanobind::detail::Buffer" = type { ptr, ptr, ptr }
%"struct.nanobind::detail::lock_internals" = type { i8 }

@_ZN8nanobind6detail9internalsE = external hidden global ptr, align 8
@_ZN8nanobind6detail3bufE = external hidden global %"struct.nanobind::detail::Buffer", align 8
@PyExc_TypeError = external global ptr, align 8
@.str.19 = private unnamed_addr constant [81 x i8] c"Unable to convert function return value to a Python type! The signature was\0A    \00", align 1

; Function Attrs: mustprogress nounwind uwtable
define linkonce_odr hidden noundef i64 @_ZNK8nanobind6detail6Buffer6remainEv(ptr noundef nonnull align 8 dereferenceable(24) %0) #8 comdat align 2 {
  %2 = alloca ptr, align 8
  store ptr %0, ptr %2, align 8
  %3 = load ptr, ptr %2, align 8
  %4 = getelementptr inbounds nuw %"struct.nanobind::detail::Buffer", ptr %3, i32 0, i32 2
  %5 = load ptr, ptr %4, align 8
  %6 = getelementptr inbounds nuw %"struct.nanobind::detail::Buffer", ptr %3, i32 0, i32 1
  %7 = load ptr, ptr %6, align 8
  %8 = ptrtoint ptr %5 to i64
  %9 = ptrtoint ptr %7 to i64
  %10 = sub i64 %8, %9
  ret i64 %10
}

; Function Attrs: mustprogress uwtable
define linkonce_odr hidden void @_ZN8nanobind6detail6Buffer3putEPKcm(ptr noundef nonnull align 8 dereferenceable(24) %0, ptr noundef %1, i64 noundef %2) #0 comdat align 2 {
  %4 = alloca ptr, align 8
  %5 = alloca ptr, align 8
  %6 = alloca i64, align 8
  store ptr %0, ptr %4, align 8
  store ptr %1, ptr %5, align 8
  store i64 %2, ptr %6, align 8
  %7 = load ptr, ptr %4, align 8
  %8 = getelementptr inbounds nuw %"struct.nanobind::detail::Buffer", ptr %7, i32 0, i32 1
  %9 = load ptr, ptr %8, align 8
  %10 = load i64, ptr %6, align 8
  %11 = getelementptr inbounds nuw i8, ptr %9, i64 %10
  %12 = getelementptr inbounds nuw %"struct.nanobind::detail::Buffer", ptr %7, i32 0, i32 2
  %13 = load ptr, ptr %12, align 8
  %14 = icmp uge ptr %11, %13
  br i1 %14, label %15, label %20

15:                                               ; preds = %3
  %16 = load i64, ptr %6, align 8
  %17 = add i64 %16, 1
  %18 = call noundef i64 @_ZNK8nanobind6detail6Buffer6remainEv(ptr noundef nonnull align 8 dereferenceable(24) %7)
  %19 = sub i64 %17, %18
  call void @_ZN8nanobind6detail6Buffer6expandEm(ptr noundef nonnull align 8 dereferenceable(24) %7, i64 noundef %19)
  br label %20

20:                                               ; preds = %15, %3
  %21 = getelementptr inbounds nuw %"struct.nanobind::detail::Buffer", ptr %7, i32 0, i32 1
  %22 = load ptr, ptr %21, align 8
  %23 = load ptr, ptr %5, align 8
  %24 = load i64, ptr %6, align 8
  call void @llvm.memcpy.p0.p0.i64(ptr align 1 %22, ptr align 1 %23, i64 %24, i1 false)
  %25 = load i64, ptr %6, align 8
  %26 = getelementptr inbounds nuw %"struct.nanobind::detail::Buffer", ptr %7, i32 0, i32 1
  %27 = load ptr, ptr %26, align 8
  %28 = getelementptr inbounds nuw i8, ptr %27, i64 %25
  store ptr %28, ptr %26, align 8
  %29 = getelementptr inbounds nuw %"struct.nanobind::detail::Buffer", ptr %7, i32 0, i32 1
  %30 = load ptr, ptr %29, align 8
  store i8 0, ptr %30, align 1
  ret void
}

; Function Attrs: mustprogress nounwind uwtable
define linkonce_odr hidden noundef ptr @_ZN8nanobind6detail6Buffer3getEv(ptr noundef nonnull align 8 dereferenceable(24) %0) #8 comdat align 2 {
  %2 = alloca ptr, align 8
  store ptr %0, ptr %2, align 8
  %3 = load ptr, ptr %2, align 8
  %4 = getelementptr inbounds nuw %"struct.nanobind::detail::Buffer", ptr %3, i32 0, i32 0
  %5 = load ptr, ptr %4, align 8
  ret ptr %5
}

; Function Attrs: mustprogress uwtable
define linkonce_odr hidden void @_ZN8nanobind6detail6Buffer3putILm81EEEvRAT__Kc(ptr noundef nonnull align 8 dereferenceable(24) %0, ptr noundef nonnull align 1 dereferenceable(81) %1) #0 comdat align 2 {
  %3 = alloca ptr, align 8
  %4 = alloca ptr, align 8
  store ptr %0, ptr %3, align 8
  store ptr %1, ptr %4, align 8
  %5 = load ptr, ptr %3, align 8
  %6 = load ptr, ptr %4, align 8
  %7 = getelementptr inbounds [81 x i8], ptr %6, i64 0, i64 0
  call void @_ZN8nanobind6detail6Buffer3putEPKcm(ptr noundef nonnull align 8 dereferenceable(24) %5, ptr noundef %7, i64 noundef 80)
  ret void
}

; Function Attrs: mustprogress nounwind uwtable
define linkonce_odr hidden void @_ZN8nanobind6detail6Buffer5clearEv(ptr noundef nonnull align 8 dereferenceable(24) %0) #8 comdat align 2 {
  %2 = alloca ptr, align 8
  store ptr %0, ptr %2, align 8
  %3 = load ptr, ptr %2, align 8
  %4 = getelementptr inbounds nuw %"struct.nanobind::detail::Buffer", ptr %3, i32 0, i32 0
  %5 = load ptr, ptr %4, align 8
  %6 = getelementptr inbounds nuw %"struct.nanobind::detail::Buffer", ptr %3, i32 0, i32 1
  store ptr %5, ptr %6, align 8
  %7 = getelementptr inbounds nuw %"struct.nanobind::detail::Buffer", ptr %3, i32 0, i32 0
  %8 = load ptr, ptr %7, align 8
  %9 = getelementptr inbounds nuw %"struct.nanobind::detail::Buffer", ptr %3, i32 0, i32 2
  %10 = load ptr, ptr %9, align 8
  %11 = icmp ne ptr %8, %10
  br i1 %11, label %12, label %16

12:                                               ; preds = %1
  %13 = getelementptr inbounds nuw %"struct.nanobind::detail::Buffer", ptr %3, i32 0, i32 0
  %14 = load ptr, ptr %13, align 8
  %15 = getelementptr inbounds i8, ptr %14, i64 0
  store i8 0, ptr %15, align 1
  br label %16

16:                                               ; preds = %12, %1
  ret void
}

; Function Attrs: mustprogress nounwind uwtable
define linkonce_odr hidden void @_ZN8nanobind6detail14lock_internalsC2EPNS0_12nb_internalsE(ptr noundef nonnull align 1 dereferenceable(1) %0, ptr noundef %1) unnamed_addr #8 comdat align 2 {
  %3 = alloca ptr, align 8
  %4 = alloca ptr, align 8
  store ptr %0, ptr %3, align 8
  store ptr %1, ptr %4, align 8
  ret void
}

; Function Attrs: alwaysinline mustprogress nounwind uwtable
define linkonce_odr hidden noundef ptr @_ZN8nanobind6detail12nb_func_dataEPv(ptr noundef %0) #2 comdat {
  %2 = alloca ptr, align 8
  store ptr %0, ptr %2, align 8
  %3 = load ptr, ptr %2, align 8
  %4 = getelementptr inbounds nuw i8, ptr %3, i64 40
  ret ptr %4
}

; Function Attrs: mustprogress noinline nounwind uwtable
define internal noundef ptr @_ZN8nanobind6detailL23nb_func_error_noconvertEP7_objectPKS2_mS2_(ptr noundef %0, ptr noundef %1, i64 noundef %2, ptr noundef %3) #16 personality ptr @__gxx_personality_v0 {
  %5 = alloca ptr, align 8
  %6 = alloca ptr, align 8
  %7 = alloca ptr, align 8
  %8 = alloca i64, align 8
  %9 = alloca ptr, align 8
  %10 = alloca ptr, align 8
  %11 = alloca %"struct.nanobind::detail::lock_internals", align 1
  store ptr %0, ptr %6, align 8
  store ptr %1, ptr %7, align 8
  store i64 %2, ptr %8, align 8
  store ptr %3, ptr %9, align 8
  %12 = invoke ptr @PyErr_Occurred()
          to label %13 unwind label %31

13:                                               ; preds = %4
  %14 = icmp ne ptr %12, null
  br i1 %14, label %15, label %16

15:                                               ; preds = %13
  store ptr null, ptr %5, align 8
  br label %29

16:                                               ; preds = %13
  call void @llvm.lifetime.start.p0(i64 8, ptr %10) #22
  %17 = load ptr, ptr %6, align 8
  %18 = call noundef ptr @_ZN8nanobind6detail12nb_func_dataEPv(ptr noundef %17)
  store ptr %18, ptr %10, align 8
  call void @llvm.lifetime.start.p0(i64 1, ptr %11) #22
  %19 = load ptr, ptr @_ZN8nanobind6detail9internalsE, align 8
  invoke void @_ZN8nanobind6detail14lock_internalsC2EPNS0_12nb_internalsE(ptr noundef nonnull align 1 dereferenceable(1) %11, ptr noundef %19)
          to label %20 unwind label %31

20:                                               ; preds = %16
  invoke void @_ZN8nanobind6detail6Buffer5clearEv(ptr noundef nonnull align 8 dereferenceable(24) @_ZN8nanobind6detail3bufE)
          to label %21 unwind label %31

21:                                               ; preds = %20
  invoke void @_ZN8nanobind6detail6Buffer3putILm81EEEvRAT__Kc(ptr noundef nonnull align 8 dereferenceable(24) @_ZN8nanobind6detail3bufE, ptr noundef nonnull align 1 dereferenceable(81) @.str.19)
          to label %22 unwind label %31

22:                                               ; preds = %21
  %23 = load ptr, ptr %10, align 8
  %24 = call noundef i32 @_ZN8nanobind6detailL24nb_func_render_signatureEPKNS0_9func_dataEb(ptr noundef %23, i1 noundef zeroext false) #22
  %25 = load ptr, ptr @PyExc_TypeError, align 8
  %26 = invoke noundef ptr @_ZN8nanobind6detail6Buffer3getEv(ptr noundef nonnull align 8 dereferenceable(24) @_ZN8nanobind6detail3bufE)
          to label %27 unwind label %31

27:                                               ; preds = %22
  invoke void @PyErr_SetString(ptr noundef %25, ptr noundef %26)
          to label %28 unwind label %31

28:                                               ; preds = %27
  store ptr null, ptr %5, align 8
  call void @llvm.lifetime.end.p0(i64 1, ptr %11) #22
  call void @llvm.lifetime.end.p0(i64 8, ptr %10) #22
  br label %29

29:                                               ; preds = %28, %15
  %30 = load ptr, ptr %5, align 8
  ret ptr %30

31:                                               ; preds = %27, %22, %21, %20, %16, %4
  %32 = landingpad { ptr, i32 }
          catch ptr null
  %33 = extractvalue { ptr, i32 } %32, 0
  call void @__clang_call_terminate(ptr %33) #24
  unreachable
}