; Function Attrs: mustprogress noinline nounwind uwtable
define internal noalias noundef ptr @_ZN8nanobind6detailL23nb_func_error_noconvertEP7_objectPKS2_mS2_(ptr noundef readonly captures(none) %0, ptr readnone captures(none) %1, i64 %2, ptr readnone captures(none) %3) #15 personality ptr @__gxx_personality_v0 {
  %5 = invoke ptr @PyErr_Occurred()
          to label %6 unwind label %28

6:                                                ; preds = %4
  %.not = icmp eq ptr %5, null
  br i1 %.not, label %7, label %27

7:                                                ; preds = %6
  %8 = getelementptr inbounds nuw i8, ptr %0, i64 40
  %9 = load ptr, ptr @_ZN8nanobind6detail3bufE, align 8
  store ptr %9, ptr getelementptr inbounds nuw (i8, ptr @_ZN8nanobind6detail3bufE, i64 8), align 8
  %10 = load ptr, ptr getelementptr inbounds nuw (i8, ptr @_ZN8nanobind6detail3bufE, i64 16), align 8
  %.not.i = icmp eq ptr %9, %10
  br i1 %.not.i, label %_ZN8nanobind6detail6Buffer5clearEv.exit, label %11

11:                                               ; preds = %7
  store i8 0, ptr %9, align 1
  %.pre = load ptr, ptr getelementptr inbounds nuw (i8, ptr @_ZN8nanobind6detail3bufE, i64 8), align 8
  %.pre3 = load ptr, ptr getelementptr inbounds nuw (i8, ptr @_ZN8nanobind6detail3bufE, i64 16), align 8
  br label %_ZN8nanobind6detail6Buffer5clearEv.exit

_ZN8nanobind6detail6Buffer5clearEv.exit:          ; preds = %7, %11
  %12 = phi ptr [ %9, %7 ], [ %.pre3, %11 ]
  %13 = phi ptr [ %9, %7 ], [ %.pre, %11 ]
  %14 = getelementptr inbounds nuw i8, ptr %13, i64 80
  %.not.i.i = icmp ult ptr %14, %12
  br i1 %.not.i.i, label %20, label %15

15:                                               ; preds = %_ZN8nanobind6detail6Buffer5clearEv.exit
  %16 = ptrtoint ptr %12 to i64
  %17 = ptrtoint ptr %13 to i64
  %18 = add i64 %17, 81
  %19 = sub i64 %18, %16
  tail call void @_ZN8nanobind6detail6Buffer6expandEm(ptr noundef nonnull align 8 dereferenceable(24) @_ZN8nanobind6detail3bufE, i64 noundef %19)
  %.pre.i.i = load ptr, ptr getelementptr inbounds nuw (i8, ptr @_ZN8nanobind6detail3bufE, i64 8), align 8
  br label %20

20:                                               ; preds = %15, %_ZN8nanobind6detail6Buffer5clearEv.exit
  %21 = phi ptr [ %.pre.i.i, %15 ], [ %13, %_ZN8nanobind6detail6Buffer5clearEv.exit ]
  tail call void @llvm.memcpy.p0.p0.i64(ptr noundef nonnull align 1 dereferenceable(80) %21, ptr noundef nonnull align 1 dereferenceable(80) @.str.19, i64 80, i1 false)
  %22 = load ptr, ptr getelementptr inbounds nuw (i8, ptr @_ZN8nanobind6detail3bufE, i64 8), align 8
  %23 = getelementptr inbounds nuw i8, ptr %22, i64 80
  store ptr %23, ptr getelementptr inbounds nuw (i8, ptr @_ZN8nanobind6detail3bufE, i64 8), align 8
  store i8 0, ptr %23, align 1
  %24 = tail call fastcc noundef i32 @_ZN8nanobind6detailL24nb_func_render_signatureEPKNS0_9func_dataEb(ptr noundef nonnull %8, i1 noundef zeroext false) #25
  %25 = load ptr, ptr @PyExc_TypeError, align 8
  %26 = load ptr, ptr @_ZN8nanobind6detail3bufE, align 8
  invoke void @PyErr_SetString(ptr noundef %25, ptr noundef %26)
          to label %27 unwind label %28

27:                                               ; preds = %20, %6
  ret ptr null

28:                                               ; preds = %20, %4
  %29 = landingpad { ptr, i32 }
          catch ptr null
  %30 = extractvalue { ptr, i32 } %29, 0
  tail call void @__clang_call_terminate(ptr %30) #26
  unreachable
}